; Function Attrs: mustprogress uwtable
define internal noundef zeroext i1 @"_ZNSt17_Function_handlerIFP25dependent_expr_simplifierR11ast_managerRK10params_refR20dependent_expr_stateEZ22Z3_simplifier_and_thenE3$_0E10_M_managerERSt9_Any_dataRKSC_St18_Manager_operation"(ptr nocapture noundef nonnull align 8 dereferenceable(16) %__dest, ptr nocapture noundef nonnull readonly align 8 dereferenceable(16) %__source, i32 noundef %__op) #3 align 2 personality ptr @__gxx_personality_v0 {
entry:
  switch i32 %__op, label %sw.epilog [
    i32 0, label %sw.bb
    i32 1, label %sw.bb1
    i32 3, label %sw.bb6.i
    i32 2, label %sw.bb4.i
  ]

sw.bb:                                            ; preds = %entry
  store ptr @"_ZTIZ22Z3_simplifier_and_thenE3$_0", ptr %__dest, align 8
  br label %sw.epilog

sw.bb1:                                           ; preds = %entry
  %__source.val = load ptr, ptr %__source, align 8
  store ptr %__source.val, ptr %__dest, align 8
  br label %sw.epilog

sw.bb4.i:                                         ; preds = %entry
  %__source.val5 = load ptr, ptr %__source, align 8
  %call.i.i.i = tail call noalias noundef nonnull dereferenceable(64) ptr @_Znwm(i64 noundef 64) #21
  invoke fastcc void @"_ZZ22Z3_simplifier_and_thenEN3$_0C2ERKS_"(ptr noundef nonnull align 8 dereferenceable(64) %call.i.i.i, ptr noundef nonnull align 8 dereferenceable(64) %__source.val5)
          to label %"_ZNSt14_Function_base13_Base_managerIZ22Z3_simplifier_and_thenE3$_0E15_M_init_functorIRKS1_EEvRSt9_Any_dataOT_.exit.i" unwind label %lpad.i.i.i

lpad.i.i.i:                                       ; preds = %sw.bb4.i
  %0 = landingpad { ptr, i32 }
          cleanup
  tail call void @_ZdlPv(ptr noundef nonnull %call.i.i.i) #22
  resume { ptr, i32 } %0

"_ZNSt14_Function_base13_Base_managerIZ22Z3_simplifier_and_thenE3$_0E15_M_init_functorIRKS1_EEvRSt9_Any_dataOT_.exit.i": ; preds = %sw.bb4.i
  store ptr %call.i.i.i, ptr %__dest, align 8
  br label %sw.epilog

sw.bb6.i:                                         ; preds = %entry
  %__dest.val.i = load ptr, ptr %__dest, align 8
  %isnull.i.i = icmp eq ptr %__dest.val.i, null
  br i1 %isnull.i.i, label %sw.epilog, label %delete.notnull.i.i

delete.notnull.i.i:                               ; preds = %sw.bb6.i
  %_M_manager.i.i.i.i.i = getelementptr inbounds i8, ptr %__dest.val.i, i64 48
  %1 = load ptr, ptr %_M_manager.i.i.i.i.i, align 8
  %tobool.not.i.i.i.i.i = icmp eq ptr %1, null
  br i1 %tobool.not.i.i.i.i.i, label %_ZNSt8functionIFP25dependent_expr_simplifierR11ast_managerRK10params_refR20dependent_expr_stateEED2Ev.exit.i.i.i, label %if.then.i.i.i.i.i

if.then.i.i.i.i.i:                                ; preds = %delete.notnull.i.i
  %2 = getelementptr inbounds i8, ptr %__dest.val.i, i64 32
  %call.i.i.i.i.i = invoke noundef zeroext i1 %1(ptr noundef nonnull align 8 dereferenceable(16) %2, ptr noundef nonnull align 8 dereferenceable(16) %2, i32 noundef 3)
          to label %_ZNSt8functionIFP25dependent_expr_simplifierR11ast_managerRK10params_refR20dependent_expr_stateEED2Ev.exit.i.i.i unwind label %terminate.lpad.i.i.i.i.i

terminate.lpad.i.i.i.i.i:                         ; preds = %if.then.i.i.i.i.i
  %3 = landingpad { ptr, i32 }
          catch ptr null
  %4 = extractvalue { ptr, i32 } %3, 0
  tail call void @__clang_call_terminate(ptr %4) #20
  unreachable

_ZNSt8functionIFP25dependent_expr_simplifierR11ast_managerRK10params_refR20dependent_expr_stateEED2Ev.exit.i.i.i: ; preds = %if.then.i.i.i.i.i, %delete.notnull.i.i
  %_M_manager.i.i1.i.i.i = getelementptr inbounds i8, ptr %__dest.val.i, i64 16
  %5 = load ptr, ptr %_M_manager.i.i1.i.i.i, align 8
  %tobool.not.i.i2.i.i.i = icmp eq ptr %5, null
  br i1 %tobool.not.i.i2.i.i.i, label %"_ZZ22Z3_simplifier_and_thenEN3$_0D2Ev.exit.i.i", label %if.then.i.i3.i.i.i

if.then.i.i3.i.i.i:                               ; preds = %_ZNSt8functionIFP25dependent_expr_simplifierR11ast_managerRK10params_refR20dependent_expr_stateEED2Ev.exit.i.i.i
  %call.i.i4.i.i.i = invoke noundef zeroext i1 %5(ptr noundef nonnull align 8 dereferenceable(16) %__dest.val.i, ptr noundef nonnull align 8 dereferenceable(16) %__dest.val.i, i32 noundef 3)
          to label %"_ZZ22Z3_simplifier_and_thenEN3$_0D2Ev.exit.i.i" unwind label %terminate.lpad.i.i5.i.i.i

terminate.lpad.i.i5.i.i.i:                        ; preds = %if.then.i.i3.i.i.i
  %6 = landingpad { ptr, i32 }
          catch ptr null
  %7 = extractvalue { ptr, i32 } %6, 0
  tail call void @__clang_call_terminate(ptr %7) #20
  unreachable

"_ZZ22Z3_simplifier_and_thenEN3$_0D2Ev.exit.i.i": ; preds = %if.then.i.i3.i.i.i, %_ZNSt8functionIFP25dependent_expr_simplifierR11ast_managerRK10params_refR20dependent_expr_stateEED2Ev.exit.i.i.i
  tail call void @_ZdlPv(ptr noundef nonnull %__dest.val.i) #22
  br label %sw.epilog

sw.epilog:                                        ; preds = %entry, %"_ZZ22Z3_simplifier_and_thenEN3$_0D2Ev.exit.i.i", %sw.bb6.i, %"_ZNSt14_Function_base13_Base_managerIZ22Z3_simplifier_and_thenE3$_0E15_M_init_functorIRKS1_EEvRSt9_Any_dataOT_.exit.i", %sw.bb1, %sw.bb
  ret i1 false
}